; Function Attrs: mustprogress nounwind uwtable
define dso_local void @_ZN5cmELFD2Ev(ptr noundef nonnull align 8 dereferenceable(40) %0) unnamed_addr #3 align 2 personality ptr @__gxx_personality_v0 {
  %2 = getelementptr inbounds i8, ptr %0, i64 8
  tail call void @_ZNSt7__cxx1112basic_stringIcSt11char_traitsIcESaIcEED1Ev(ptr noundef nonnull align 8 dereferenceable(32) %2) #17
  %3 = load ptr, ptr %0, align 8
  %.not.i = icmp eq ptr %3, null
  br i1 %.not.i, label %_ZNSt10unique_ptrI13cmELFInternalSt14default_deleteIS0_EED2Ev.exit, label %_ZNKSt14default_deleteI13cmELFInternalEclEPS0_.exit.i

_ZNKSt14default_deleteI13cmELFInternalEclEPS0_.exit.i: ; preds = %1
  %4 = load ptr, ptr %3, align 8
  %5 = getelementptr inbounds i8, ptr %4, i64 8
  %6 = load ptr, ptr %5, align 8
  tail call void %6(ptr noundef nonnull align 8 dereferenceable(88) %3) #17
  br label %_ZNSt10unique_ptrI13cmELFInternalSt14default_deleteIS0_EED2Ev.exit

_ZNSt10unique_ptrI13cmELFInternalSt14default_deleteIS0_EED2Ev.exit: ; preds = %1, %_ZNKSt14default_deleteI13cmELFInternalEclEPS0_.exit.i
  store ptr null, ptr %0, align 8
  ret void
}